target datalayout = "e-m:e-p270:32:32-p271:32:32-p272:64:64-i64:64-i128:128-f80:128-n8:16:32:64-S128"
target triple = "x86_64-pc-linux-gnu"

@.str.12 = private unnamed_addr constant [34 x i8] c"../openssl/test/testutil/driver.c\00", align 1
@.str.14 = private unnamed_addr constant [2 x i8] c"/\00", align 1

; Function Attrs: nounwind uwtable
define ptr @test_mk_file_path(ptr noundef %0, ptr noundef %1) #0 {
  %3 = alloca ptr, align 8
  %4 = alloca ptr, align 8
  %5 = alloca ptr, align 8
  %6 = alloca i64, align 8
  %7 = alloca i64, align 8
  %8 = alloca ptr, align 8
  store ptr %0, ptr %3, align 8, !tbaa !3
  store ptr %1, ptr %4, align 8, !tbaa !3
  call void @llvm.lifetime.start.p0(i64 8, ptr %5) #7
  store ptr @.str.14, ptr %5, align 8, !tbaa !3
  call void @llvm.lifetime.start.p0(i64 8, ptr %6) #7
  %9 = load ptr, ptr %3, align 8, !tbaa !3
  %10 = icmp ne ptr %9, null
  br i1 %10, label %11, label %14

11:                                               ; preds = %2
  %12 = load ptr, ptr %3, align 8, !tbaa !3
  %13 = call i64 @strlen(ptr noundef %12) #8
  br label %15

14:                                               ; preds = %2
  br label %15

15:                                               ; preds = %14, %11
  %16 = phi i64 [ %13, %11 ], [ 0, %14 ]
  store i64 %16, ptr %6, align 8, !tbaa !28
  call void @llvm.lifetime.start.p0(i64 8, ptr %7) #7
  %17 = load i64, ptr %6, align 8, !tbaa !28
  %18 = load ptr, ptr %5, align 8, !tbaa !3
  %19 = call i64 @strlen(ptr noundef %18) #8
  %20 = add i64 %17, %19
  %21 = load ptr, ptr %4, align 8, !tbaa !3
  %22 = call i64 @strlen(ptr noundef %21) #8
  %23 = add i64 %20, %22
  %24 = add i64 %23, 1
  store i64 %24, ptr %7, align 8, !tbaa !28
  call void @llvm.lifetime.start.p0(i64 8, ptr %8) #7
  %25 = load i64, ptr %7, align 8, !tbaa !28
  %26 = call noalias ptr @CRYPTO_zalloc(i64 noundef %25, ptr noundef @.str.12, i32 noundef 450)
  store ptr %26, ptr %8, align 8, !tbaa !3
  %27 = load ptr, ptr %8, align 8, !tbaa !3
  %28 = icmp ne ptr %27, null
  br i1 %28, label %29, label %49

29:                                               ; preds = %15
  %30 = load ptr, ptr %3, align 8, !tbaa !3
  %31 = icmp ne ptr %30, null
  br i1 %31, label %32, label %44

32:                                               ; preds = %29
  %33 = load i64, ptr %6, align 8, !tbaa !28
  %34 = icmp ugt i64 %33, 0
  br i1 %34, label %35, label %44

35:                                               ; preds = %32
  %36 = load ptr, ptr %8, align 8, !tbaa !3
  %37 = load ptr, ptr %3, align 8, !tbaa !3
  %38 = load i64, ptr %7, align 8, !tbaa !28
  %39 = call i64 @OPENSSL_strlcpy(ptr noundef %36, ptr noundef %37, i64 noundef %38)
  %40 = load ptr, ptr %8, align 8, !tbaa !3
  %41 = load ptr, ptr %5, align 8, !tbaa !3
  %42 = load i64, ptr %7, align 8, !tbaa !28
  %43 = call i64 @OPENSSL_strlcat(ptr noundef %40, ptr noundef %41, i64 noundef %42)
  br label %44

44:                                               ; preds = %35, %32, %29
  %45 = load ptr, ptr %8, align 8, !tbaa !3
  %46 = load ptr, ptr %4, align 8, !tbaa !3
  %47 = load i64, ptr %7, align 8, !tbaa !28
  %48 = call i64 @OPENSSL_strlcat(ptr noundef %45, ptr noundef %46, i64 noundef %47)
  br label %49

49:                                               ; preds = %44, %15
  %50 = load ptr, ptr %8, align 8, !tbaa !3
  call void @llvm.lifetime.end.p0(i64 8, ptr %8) #7
  call void @llvm.lifetime.end.p0(i64 8, ptr %7) #7
  call void @llvm.lifetime.end.p0(i64 8, ptr %6) #7
  call void @llvm.lifetime.end.p0(i64 8, ptr %5) #7
  ret ptr %50
}