; Function Attrs: nounwind uwtable
define ptr @test_mk_file_path(ptr noundef %0, ptr noundef %1) local_unnamed_addr #1 {
  %3 = icmp ne ptr %0, null
  br i1 %3, label %4, label %6

4:                                                ; preds = %2
  %5 = tail call i64 @strlen(ptr noundef nonnull dereferenceable(1) %0) #14
  br label %6

6:                                                ; preds = %2, %4
  %7 = phi i64 [ %5, %4 ], [ 0, %2 ]
  %8 = tail call i64 @strlen(ptr noundef nonnull dereferenceable(1) %1) #14
  %9 = add i64 %7, 2
  %10 = add i64 %9, %8
  %11 = tail call noalias ptr @CRYPTO_zalloc(i64 noundef %10, ptr noundef nonnull @.str.12, i32 noundef 450) #13
  %.not = icmp eq ptr %11, null
  br i1 %.not, label %19, label %12

12:                                               ; preds = %6
  %13 = icmp ne i64 %7, 0
  %or.cond = and i1 %3, %13
  br i1 %or.cond, label %14, label %17

14:                                               ; preds = %12
  %15 = tail call i64 @OPENSSL_strlcpy(ptr noundef nonnull %11, ptr noundef nonnull %0, i64 noundef %10) #13
  %16 = tail call i64 @OPENSSL_strlcat(ptr noundef nonnull %11, ptr noundef nonnull @.str.14, i64 noundef %10) #13
  br label %17

17:                                               ; preds = %14, %12
  %18 = tail call i64 @OPENSSL_strlcat(ptr noundef nonnull %11, ptr noundef nonnull %1, i64 noundef %10) #13
  br label %19

19:                                               ; preds = %17, %6
  ret ptr %11
}